; Function Attrs: mustprogress uwtable
define noundef nonnull ptr @_ZN4base28PersistentHistogramAllocator19UseSampleMapRecordsEmPKv(ptr noundef nonnull align 8 dereferenceable(132) %0, i64 noundef %1, ptr noundef %2) local_unnamed_addr #0 align 2 personality ptr @__gxx_personality_v0 {
  %4 = getelementptr inbounds nuw i8, ptr %0, i64 16
  %5 = getelementptr inbounds nuw i8, ptr %0, i64 88
  tail call void @_ZN4base8internal8LockImpl4LockEv(ptr noundef nonnull align 8 dereferenceable(40) %5)
  %6 = invoke noundef ptr @_ZN4base36PersistentSparseHistogramDataManager30GetSampleMapRecordsWhileLockedEm(ptr noundef nonnull align 8 dereferenceable(112) %4, i64 noundef %1)
          to label %7 unwind label %13

7:                                                ; preds = %3
  %8 = getelementptr inbounds nuw i8, ptr %6, i64 16
  store ptr %2, ptr %8, align 8, !tbaa !30
  %9 = getelementptr inbounds nuw i8, ptr %6, i64 24
  store i64 0, ptr %9, align 8, !tbaa !38
  invoke void @_ZN4base8internal8LockImpl6UnlockEv(ptr noundef nonnull align 8 dereferenceable(40) %5)
          to label %_ZN4base36PersistentSparseHistogramDataManager19UseSampleMapRecordsEmPKv.exit unwind label %10

10:                                               ; preds = %7
  %11 = landingpad { ptr, i32 }
          catch ptr null
  %12 = extractvalue { ptr, i32 } %11, 0
  tail call void @__clang_call_terminate(ptr %12) #22
  unreachable

13:                                               ; preds = %3
  %14 = landingpad { ptr, i32 }
          cleanup
  invoke void @_ZN4base8internal8LockImpl6UnlockEv(ptr noundef nonnull align 8 dereferenceable(40) %5)
          to label %_ZN4base8AutoLockD2Ev.exit4.i unwind label %15

15:                                               ; preds = %13
  %16 = landingpad { ptr, i32 }
          catch ptr null
  %17 = extractvalue { ptr, i32 } %16, 0
  tail call void @__clang_call_terminate(ptr %17) #22
  unreachable

_ZN4base8AutoLockD2Ev.exit4.i:                    ; preds = %13
  resume { ptr, i32 } %14

_ZN4base36PersistentSparseHistogramDataManager19UseSampleMapRecordsEmPKv.exit: ; preds = %7
  ret ptr %6
}